Certificate:
    Data:
        Version: 3 (0x2)
        Serial Number: 1 (0x1)
    Signature Algorithm: sha1WithRSAEncryption
        Issuer: C=JP, ST=Some-State, O=Internet Widgits Pty Ltd, CN=go4jocks.xyz
        Validity
            Not Before: Jul 14 10:01:25 2014 GMT
            Not After : Jul 14 10:01:25 2015 GMT
        Subject: C=JP, ST=Some-State, O=Internet Widgits Pty Ltd, CN=go4jocks.xyz
        Subject Public Key Info:
            Public Key Algorithm: rsaEncryption
                Public-Key: (1024 bit)
                Modulus:
                    00:b0:2a:15:2e:82:59:5b:04:0b:5d:8b:59:2e:b8:
                    b9:3f:8b:a2:5e:d4:0e:e2:92:22:00:3a:73:ec:50:
                    9d:e1:56:e9:66:dc:b6:bf:93:df:2a:ec:b4:7e:6d:
                    63:f0:d4:a0:cc:b2:a8:f3:98:1b:53:2c:02:92:c0:
                    b4:98:ba:b8:01:fd:5d:5d:f4:d7:bf:71:8f:d7:07:
                    64:a8:22:6c:6d:e0:a5:54:31:68:35:dd:15:4d:45:
                    91:57:91:08:ae:f3:c8:cd:39:12:ae:61:f3:6d:df:
                    de:a9:e1:d2:09:1f:1f:16:b3:67:b9:c8:af:b5:85:
                    2e:6a:8c:f1:b0:1e:99:df:09
                Exponent: 65537 (0x10001)
        X509v3 extensions:
            X509v3 Basic Constraints:
                CA:FALSE
            Netscape Comment:
                OpenSSL Generated Certificate
            X509v3 Subject Key Identifier:
                67:BD:7B:2D:03:74:17:3E:0C:4F:4C:DF:35:4F:1F:ED:57:59:EA:85
            X509v3 Authority Key Identifier:
                keyid:26:BF:21:A6:AC:51:D9:57:8C:C7:7D:FF:C4:59:8E:DB:9E:5C:D4:3B

    Signature Algorithm: sha1WithRSAEncryption
         82:87:fb:66:57:ee:e6:51:d6:bc:79:04:ef:ff:33:41:3c:e3:
         32:c2:c6:84:ff:b4:70:9e:79:d5:e5:9c:ab:ce:86:f6:8d:f4:
         d4:d7:3f:1a:8c:00:86:91:6b:9c:22:72:6e:e0:22:ac:65:ba:
         15:c3:b9:e4:72:63:b2:5e:19:ce:e3:bd:a8:bf:2d:72:33:6f:
         ae:90:31:b9:60:f3:86:59:e8:f1:f9:dd:c7:37:36:8f:c7:d9:
         34:6e:6a:5e:42:da:da:84:83:41:33:0e:1c:45:63:18:52:29:
         56:1a:1a:43:25:9d:4b:d1:1d:13:fe:99:54:34:d7:d7:61:40:
         2e:7b:ee:e9:24:9b:75:1a:c5:9d:60:23:fb:81:56:e1:c6:a1:
         16:ee:ee:46:0e:9c:28:e2:3c:05:b1:62:1f:3c:b0:d7:c5:04:
         be:20:33:15:d9:55:09:bc:4a:ea:34:45:91:68:22:92:08:bb:
         01:22:90:89:11:55:52:72:1c:f8:1c:71:d1:fc:d3:6e:96:5b:
         89:95:10:8a:2c:31:0d:cd:23:bb:83:8d:23:57:aa:97:08:e6:
         d1:80:eb:fb:b6:71:28:aa:ef:62:e4:ac:bd:fe:15:a4:be:ed:
         a2:04:e9:58:c7:60:18:9d:7a:5d:06:08:61:05:53:48:b6:64:
         e5:0a:8a:57
-----BEGIN CERTIFICATE-----
MIIDKjCCAhKgAwIBAgIBATANBgkqhkiG9w0BAQUFADBcMQswCQYDVQQGEwJKUDET
MBEGA1UECAwKU29tZS1TdGF0ZTEhMB8GA1UECgwYSW50ZXJuZXQgV2lkZ2l0cyBQ
dHkgTHRkMRUwEwYDVQQDDAxnbzRqb2Nrcy54eXowHhcNMTQwNzE0MTAwMTI1WhcN
MTUwNzE0MTAwMTI1WjBcMQswCQYDVQQGEwJKUDETMBEGA1UECAwKU29tZS1TdGF0
ZTEhMB8GA1UECgwYSW50ZXJuZXQgV2lkZ2l0cyBQdHkgTHRkMRUwEwYDVQQDDAxn
bzRqb2Nrcy54eXowgZ8wDQYJKoZIhvcNAQEBBQADgY0AMIGJAoGBALAqFS6CWVsE
C12LWS64uT+Lol7UDuKSIgA6c+xQneFW6Wbctr+T3yrstH5tY/DUoMyyqPOYG1Ms
ApLAtJi6uAH9XV30179xj9cHZKgibG3gpVQxaDXdFU1FkVeRCK7zyM05Eq5h823f
3qnh0gkfHxazZ7nIr7WFLmqM8bAemd8JAgMBAAGjezB5MAkGA1UdEwQCMAAwLAYJ
YIZIAYb4QgENBB8WHU9wZW5TU0wgR2VuZXJhdGVkIENlcnRpZmljYXRlMB0GA1Ud
DgQWBBRnvXstA3QXPgxPTN81Tx/tV1nqhTAfBgNVHSMEGDAWgBQmvyGmrFHZV4zH
ff/EWY7bnlzUOzANBgkqhkiG9w0BAQUFAAOCAQEAgof7Zlfu5lHWvHkE7/8zQTzj
MsLGhP+0cJ551eWcq86G9o301Nc/GowAhpFrnCJybuAirGW6FcO55HJjsl4ZzuO9
qL8tcjNvrpAxuWDzhlno8fndxzc2j8fZNG5qXkLa2oSDQTMOHEVjGFIpVhoaQyWd
S9EdE/6ZVDTX12FALnvu6SSbdRrFnWAj+4FW4cahFu7uRg6cKOI8BbFiHzyw18UE
viAzFdlVCbxK6jRFkWgikgi7ASKQiRFVUnIc+Bxx0fzTbpZbiZUQiiwxDc0ju4ON
I1eqlwjm0YDr+7ZxKKrvYuSsvf4VpL7togTpWMdgGJ16XQYIYQVTSLZk5QqKVw==
-----END CERTIFICATE-----
